target datalayout = "e-m:e-p270:32:32-p271:32:32-p272:64:64-i64:64-i128:128-f80:128-n8:16:32:64-S128"
target triple = "x86_64-pc-linux-gnu"

%struct.Abc_Ntk_t_ = type { i32, i32, ptr, ptr, ptr, ptr, ptr, ptr, ptr, ptr, ptr, ptr, ptr, [11 x i32], i32, i32, i32, i32, ptr, i32, ptr, ptr, i32, i32, i32, double, i32, %struct.Vec_Int_t_, ptr, ptr, ptr, ptr, ptr, float, i32, ptr, ptr, ptr, ptr, ptr, ptr, ptr, ptr, ptr, ptr, ptr, ptr, ptr, ptr, ptr, ptr, ptr, ptr, ptr, ptr, ptr, ptr }
%struct.Vec_Int_t_ = type { i32, i32, ptr }
%struct.Vec_Ptr_t_ = type { i32, i32, ptr }
%struct.Ver_Bundle_t_ = type { ptr, ptr }
%struct.Abc_Obj_t_ = type { ptr, ptr, i32, i32, %struct.Vec_Int_t_, %struct.Vec_Int_t_, %union.anon, %union.anon.0 }
%union.anon = type { ptr }
%union.anon.0 = type { ptr }

@.str.2 = private unnamed_addr constant [5 x i8] c"1'b0\00", align 1
@.str.4 = private unnamed_addr constant [5 x i8] c"1'b1\00", align 1

; Function Attrs: inlinehint nounwind uwtable
define internal i32 @Abc_ObjFaninNum(ptr noundef %0) #6 {
  %2 = alloca ptr, align 8
  store ptr %0, ptr %2, align 8, !tbaa !58
  %3 = load ptr, ptr %2, align 8, !tbaa !58
  %4 = getelementptr inbounds nuw %struct.Abc_Obj_t_, ptr %3, i32 0, i32 4
  %5 = getelementptr inbounds nuw %struct.Vec_Int_t_, ptr %4, i32 0, i32 1
  %6 = load i32, ptr %5, align 4, !tbaa !130
  ret i32 %6
}

; Function Attrs: inlinehint nounwind uwtable
define internal ptr @Vec_PtrEntry(ptr noundef %0, i32 noundef %1) #6 {
  %3 = alloca ptr, align 8
  %4 = alloca i32, align 4
  store ptr %0, ptr %3, align 8, !tbaa !74
  store i32 %1, ptr %4, align 4, !tbaa !10
  %5 = load ptr, ptr %3, align 8, !tbaa !74
  %6 = getelementptr inbounds nuw %struct.Vec_Ptr_t_, ptr %5, i32 0, i32 2
  %7 = load ptr, ptr %6, align 8, !tbaa !79
  %8 = load i32, ptr %4, align 4, !tbaa !10
  %9 = sext i32 %8 to i64
  %10 = getelementptr inbounds ptr, ptr %7, i64 %9
  %11 = load ptr, ptr %10, align 8, !tbaa !77
  ret ptr %11
}

; Function Attrs: inlinehint nounwind uwtable
define internal i32 @Vec_PtrSize(ptr noundef %0) #6 {
  %2 = alloca ptr, align 8
  store ptr %0, ptr %2, align 8, !tbaa !74
  %3 = load ptr, ptr %2, align 8, !tbaa !74
  %4 = getelementptr inbounds nuw %struct.Vec_Ptr_t_, ptr %3, i32 0, i32 1
  %5 = load i32, ptr %4, align 4, !tbaa !75
  ret i32 %5
}

; Function Attrs: nounwind uwtable
define i32 @Ver_ParseCheckNondrivenNets(ptr noundef %0) #0 {
  %2 = alloca i32, align 4
  %3 = alloca ptr, align 8
  %4 = alloca ptr, align 8
  %5 = alloca ptr, align 8
  %6 = alloca ptr, align 8
  %7 = alloca ptr, align 8
  %8 = alloca i32, align 4
  %9 = alloca i32, align 4
  %10 = alloca i32, align 4
  %11 = alloca i32, align 4
  %12 = alloca i32, align 4
  store ptr %0, ptr %3, align 8, !tbaa !74
  call void @llvm.lifetime.start.p0(i64 8, ptr %4) #10
  call void @llvm.lifetime.start.p0(i64 8, ptr %5) #10
  call void @llvm.lifetime.start.p0(i64 8, ptr %6) #10
  call void @llvm.lifetime.start.p0(i64 8, ptr %7) #10
  call void @llvm.lifetime.start.p0(i64 4, ptr %8) #10
  call void @llvm.lifetime.start.p0(i64 4, ptr %9) #10
  call void @llvm.lifetime.start.p0(i64 4, ptr %10) #10
  call void @llvm.lifetime.start.p0(i64 4, ptr %11) #10
  store i32 0, ptr %8, align 4, !tbaa !10
  br label %13

13:                                               ; preds = %106, %1
  %14 = load i32, ptr %8, align 4, !tbaa !10
  %15 = load ptr, ptr %3, align 8, !tbaa !74
  %16 = call i32 @Vec_PtrSize(ptr noundef %15)
  %17 = icmp slt i32 %14, %16
  br i1 %17, label %18, label %22

18:                                               ; preds = %13
  %19 = load ptr, ptr %3, align 8, !tbaa !74
  %20 = load i32, ptr %8, align 4, !tbaa !10
  %21 = call ptr @Vec_PtrEntry(ptr noundef %19, i32 noundef %20)
  store ptr %21, ptr %4, align 8, !tbaa !39
  br label %22

22:                                               ; preds = %18, %13
  %23 = phi i1 [ false, %13 ], [ true, %18 ]
  br i1 %23, label %24, label %109

24:                                               ; preds = %22
  store i32 0, ptr %9, align 4, !tbaa !10
  br label %25

25:                                               ; preds = %102, %24
  %26 = load i32, ptr %9, align 4, !tbaa !10
  %27 = load ptr, ptr %4, align 8, !tbaa !39
  %28 = getelementptr inbounds nuw %struct.Abc_Ntk_t_, ptr %27, i32 0, i32 42
  %29 = load ptr, ptr %28, align 8, !tbaa !116
  %30 = call i32 @Vec_PtrSize(ptr noundef %29)
  %31 = icmp slt i32 %26, %30
  br i1 %31, label %32, label %38

32:                                               ; preds = %25
  %33 = load ptr, ptr %4, align 8, !tbaa !39
  %34 = getelementptr inbounds nuw %struct.Abc_Ntk_t_, ptr %33, i32 0, i32 42
  %35 = load ptr, ptr %34, align 8, !tbaa !116
  %36 = load i32, ptr %9, align 4, !tbaa !10
  %37 = call ptr @Vec_PtrEntry(ptr noundef %35, i32 noundef %36)
  store ptr %37, ptr %6, align 8, !tbaa !58
  br label %38

38:                                               ; preds = %32, %25
  %39 = phi i1 [ false, %25 ], [ true, %32 ]
  br i1 %39, label %40, label %105

40:                                               ; preds = %38
  %41 = load ptr, ptr %6, align 8, !tbaa !58
  %42 = getelementptr inbounds nuw %struct.Abc_Obj_t_, ptr %41, i32 0, i32 7
  %43 = load ptr, ptr %42, align 8, !tbaa !66
  %44 = call i32 @Vec_PtrSize(ptr noundef %43)
  %45 = sub nsw i32 %44, 1
  store i32 %45, ptr %10, align 4, !tbaa !10
  br label %46

46:                                               ; preds = %98, %40
  %47 = load i32, ptr %10, align 4, !tbaa !10
  %48 = icmp sge i32 %47, 0
  br i1 %48, label %49, label %55

49:                                               ; preds = %46
  %50 = load ptr, ptr %6, align 8, !tbaa !58
  %51 = getelementptr inbounds nuw %struct.Abc_Obj_t_, ptr %50, i32 0, i32 7
  %52 = load ptr, ptr %51, align 8, !tbaa !66
  %53 = load i32, ptr %10, align 4, !tbaa !10
  %54 = call ptr @Vec_PtrEntry(ptr noundef %52, i32 noundef %53)
  store ptr %54, ptr %5, align 8, !tbaa !85
  br label %55

55:                                               ; preds = %49, %46
  %56 = phi i1 [ false, %46 ], [ true, %49 ]
  br i1 %56, label %57, label %101

57:                                               ; preds = %55
  %58 = load ptr, ptr %5, align 8, !tbaa !85
  %59 = icmp ne ptr %58, null
  br i1 %59, label %60, label %97

60:                                               ; preds = %57
  store i32 0, ptr %11, align 4, !tbaa !10
  br label %61

61:                                               ; preds = %93, %60
  %62 = load i32, ptr %11, align 4, !tbaa !10
  %63 = load ptr, ptr %5, align 8, !tbaa !85
  %64 = getelementptr inbounds nuw %struct.Ver_Bundle_t_, ptr %63, i32 0, i32 1
  %65 = load ptr, ptr %64, align 8, !tbaa !89
  %66 = call i32 @Vec_PtrSize(ptr noundef %65)
  %67 = icmp slt i32 %62, %66
  br i1 %67, label %68, label %74

68:                                               ; preds = %61
  %69 = load ptr, ptr %5, align 8, !tbaa !85
  %70 = getelementptr inbounds nuw %struct.Ver_Bundle_t_, ptr %69, i32 0, i32 1
  %71 = load ptr, ptr %70, align 8, !tbaa !89
  %72 = load i32, ptr %11, align 4, !tbaa !10
  %73 = call ptr @Vec_PtrEntry(ptr noundef %71, i32 noundef %72)
  store ptr %73, ptr %7, align 8, !tbaa !58
  br label %74

74:                                               ; preds = %68, %61
  %75 = phi i1 [ false, %61 ], [ true, %68 ]
  br i1 %75, label %76, label %96

76:                                               ; preds = %74
  %77 = load ptr, ptr %7, align 8, !tbaa !58
  %78 = call i32 @Abc_ObjFaninNum(ptr noundef %77)
  %79 = icmp eq i32 %78, 0
  br i1 %79, label %80, label %92

80:                                               ; preds = %76
  %81 = load ptr, ptr %7, align 8, !tbaa !58
  %82 = call ptr @Abc_ObjName(ptr noundef %81)
  %83 = call i32 @strcmp(ptr noundef %82, ptr noundef @.str.2) #12
  %84 = icmp ne i32 %83, 0
  br i1 %84, label %85, label %91

85:                                               ; preds = %80
  %86 = load ptr, ptr %7, align 8, !tbaa !58
  %87 = call ptr @Abc_ObjName(ptr noundef %86)
  %88 = call i32 @strcmp(ptr noundef %87, ptr noundef @.str.4) #12
  %89 = icmp ne i32 %88, 0
  br i1 %89, label %90, label %91

90:                                               ; preds = %85
  store i32 1, ptr %2, align 4
  store i32 1, ptr %12, align 4
  br label %110

91:                                               ; preds = %85, %80
  br label %92

92:                                               ; preds = %91, %76
  br label %93

93:                                               ; preds = %92
  %94 = load i32, ptr %11, align 4, !tbaa !10
  %95 = add nsw i32 %94, 1
  store i32 %95, ptr %11, align 4, !tbaa !10
  br label %61, !llvm.loop !126

96:                                               ; preds = %74
  br label %97

97:                                               ; preds = %96, %57
  br label %98

98:                                               ; preds = %97
  %99 = load i32, ptr %10, align 4, !tbaa !10
  %100 = add nsw i32 %99, -1
  store i32 %100, ptr %10, align 4, !tbaa !10
  br label %46, !llvm.loop !127

101:                                              ; preds = %55
  br label %102

102:                                              ; preds = %101
  %103 = load i32, ptr %9, align 4, !tbaa !10
  %104 = add nsw i32 %103, 1
  store i32 %104, ptr %9, align 4, !tbaa !10
  br label %25, !llvm.loop !128

105:                                              ; preds = %38
  br label %106

106:                                              ; preds = %105
  %107 = load i32, ptr %8, align 4, !tbaa !10
  %108 = add nsw i32 %107, 1
  store i32 %108, ptr %8, align 4, !tbaa !10
  br label %13, !llvm.loop !129

109:                                              ; preds = %22
  store i32 0, ptr %2, align 4
  store i32 1, ptr %12, align 4
  br label %110

110:                                              ; preds = %109, %90
  call void @llvm.lifetime.end.p0(i64 4, ptr %11) #10
  call void @llvm.lifetime.end.p0(i64 4, ptr %10) #10
  call void @llvm.lifetime.end.p0(i64 4, ptr %9) #10
  call void @llvm.lifetime.end.p0(i64 4, ptr %8) #10
  call void @llvm.lifetime.end.p0(i64 8, ptr %7) #10
  call void @llvm.lifetime.end.p0(i64 8, ptr %6) #10
  call void @llvm.lifetime.end.p0(i64 8, ptr %5) #10
  call void @llvm.lifetime.end.p0(i64 8, ptr %4) #10
  %111 = load i32, ptr %2, align 4
  ret i32 %111
}