; Function Attrs: nounwind uwtable
define range(i32 0, 2) i32 @Ver_ParseCheckNondrivenNets(ptr noundef readonly captures(none) %0) local_unnamed_addr #0 {
  %2 = getelementptr i8, ptr %0, i64 4
  %.val4054 = load i32, ptr %2, align 4, !tbaa !20
  %3 = icmp sgt i32 %.val4054, 0
  br i1 %3, label %.lr.ph56, label %.critedge

.lr.ph56:                                         ; preds = %1
  %4 = getelementptr i8, ptr %0, i64 8
  br label %5

5:                                                ; preds = %.lr.ph56, %.critedge2
  %.val4068 = phi i32 [ %.val4054, %.lr.ph56 ], [ %.val40, %.critedge2 ]
  %indvars.iv65 = phi i64 [ 0, %.lr.ph56 ], [ %indvars.iv.next66, %.critedge2 ]
  %.val44 = load ptr, ptr %4, align 8, !tbaa !23
  %6 = getelementptr inbounds nuw ptr, ptr %.val44, i64 %indvars.iv65
  %7 = load ptr, ptr %6, align 8, !tbaa !63
  %8 = getelementptr inbounds nuw i8, ptr %7, i64 344
  %9 = load ptr, ptr %8, align 8, !tbaa !72
  %10 = getelementptr i8, ptr %9, i64 4
  %.val3951 = load i32, ptr %10, align 4, !tbaa !20
  %11 = icmp sgt i32 %.val3951, 0
  br i1 %11, label %.lr.ph53, label %.critedge2

.lr.ph53:                                         ; preds = %5, %.critedge4
  %12 = phi ptr [ %47, %.critedge4 ], [ %9, %5 ]
  %indvars.iv62 = phi i64 [ %indvars.iv.next63, %.critedge4 ], [ 0, %5 ]
  %13 = getelementptr i8, ptr %12, i64 8
  %.val43 = load ptr, ptr %13, align 8, !tbaa !23
  %14 = getelementptr inbounds nuw ptr, ptr %.val43, i64 %indvars.iv62
  %15 = load ptr, ptr %14, align 8, !tbaa !63
  %16 = getelementptr inbounds nuw i8, ptr %15, i64 64
  %17 = load ptr, ptr %16, align 8, !tbaa !73
  %18 = getelementptr i8, ptr %17, i64 4
  %.val38 = load i32, ptr %18, align 4, !tbaa !20
  %19 = icmp sgt i32 %.val38, 0
  br i1 %19, label %.lr.ph50.preheader, label %.critedge4

.lr.ph50.preheader:                               ; preds = %.lr.ph53
  %20 = zext nneg i32 %.val38 to i64
  br label %.lr.ph50

.lr.ph50:                                         ; preds = %.lr.ph50.preheader, %.critedge6
  %indvars.iv59 = phi i64 [ %20, %.lr.ph50.preheader ], [ %indvars.iv.next60, %.critedge6 ]
  %indvars.iv.next60 = add nsw i64 %indvars.iv59, -1
  %21 = load ptr, ptr %16, align 8, !tbaa !73
  %22 = getelementptr i8, ptr %21, i64 8
  %.val42 = load ptr, ptr %22, align 8, !tbaa !23
  %23 = getelementptr inbounds nuw ptr, ptr %.val42, i64 %indvars.iv.next60
  %24 = load ptr, ptr %23, align 8, !tbaa !63
  %.not = icmp eq ptr %24, null
  br i1 %.not, label %.critedge6, label %.preheader

.preheader:                                       ; preds = %.lr.ph50
  %25 = getelementptr inbounds nuw i8, ptr %24, i64 8
  %26 = load ptr, ptr %25, align 8, !tbaa !77
  %27 = getelementptr i8, ptr %26, i64 4
  %.val3746 = load i32, ptr %27, align 4, !tbaa !20
  %28 = icmp sgt i32 %.val3746, 0
  br i1 %28, label %.lr.ph, label %.critedge6

.lr.ph:                                           ; preds = %.preheader, %41
  %indvars.iv = phi i64 [ %indvars.iv.next, %41 ], [ 0, %.preheader ]
  %29 = phi ptr [ %42, %41 ], [ %26, %.preheader ]
  %30 = getelementptr i8, ptr %29, i64 8
  %.val41 = load ptr, ptr %30, align 8, !tbaa !23
  %31 = getelementptr inbounds nuw ptr, ptr %.val41, i64 %indvars.iv
  %32 = load ptr, ptr %31, align 8, !tbaa !63
  %33 = getelementptr i8, ptr %32, i64 28
  %.val = load i32, ptr %33, align 4, !tbaa !79
  %34 = icmp eq i32 %.val, 0
  br i1 %34, label %35, label %41

35:                                               ; preds = %.lr.ph
  %36 = tail call ptr @Abc_ObjName(ptr noundef nonnull %32) #20
  %37 = tail call i32 @strcmp(ptr noundef nonnull dereferenceable(1) %36, ptr noundef nonnull dereferenceable(5) @.str.2) #22
  %.not35 = icmp eq i32 %37, 0
  br i1 %.not35, label %41, label %38

38:                                               ; preds = %35
  %39 = tail call ptr @Abc_ObjName(ptr noundef nonnull %32) #20
  %40 = tail call i32 @strcmp(ptr noundef nonnull dereferenceable(1) %39, ptr noundef nonnull dereferenceable(5) @.str.4) #22
  %.not36 = icmp eq i32 %40, 0
  br i1 %.not36, label %41, label %.critedge

41:                                               ; preds = %.lr.ph, %38, %35
  %indvars.iv.next = add nuw nsw i64 %indvars.iv, 1
  %42 = load ptr, ptr %25, align 8, !tbaa !77
  %43 = getelementptr i8, ptr %42, i64 4
  %.val37 = load i32, ptr %43, align 4, !tbaa !20
  %44 = sext i32 %.val37 to i64
  %45 = icmp slt i64 %indvars.iv.next, %44
  br i1 %45, label %.lr.ph, label %.critedge6, !llvm.loop !134

.critedge6:                                       ; preds = %41, %.preheader, %.lr.ph50
  %46 = icmp sgt i64 %indvars.iv59, 1
  br i1 %46, label %.lr.ph50, label %.critedge4.loopexit, !llvm.loop !135

.critedge4.loopexit:                              ; preds = %.critedge6
  %.pre = load ptr, ptr %8, align 8, !tbaa !72
  br label %.critedge4

.critedge4:                                       ; preds = %.critedge4.loopexit, %.lr.ph53
  %47 = phi ptr [ %.pre, %.critedge4.loopexit ], [ %12, %.lr.ph53 ]
  %indvars.iv.next63 = add nuw nsw i64 %indvars.iv62, 1
  %48 = getelementptr i8, ptr %47, i64 4
  %.val39 = load i32, ptr %48, align 4, !tbaa !20
  %49 = sext i32 %.val39 to i64
  %50 = icmp slt i64 %indvars.iv.next63, %49
  br i1 %50, label %.lr.ph53, label %.critedge2.loopexit, !llvm.loop !136

.critedge2.loopexit:                              ; preds = %.critedge4
  %.val40.pre = load i32, ptr %2, align 4, !tbaa !20
  br label %.critedge2

.critedge2:                                       ; preds = %.critedge2.loopexit, %5
  %.val40 = phi i32 [ %.val40.pre, %.critedge2.loopexit ], [ %.val4068, %5 ]
  %indvars.iv.next66 = add nuw nsw i64 %indvars.iv65, 1
  %51 = sext i32 %.val40 to i64
  %52 = icmp slt i64 %indvars.iv.next66, %51
  br i1 %52, label %5, label %.critedge, !llvm.loop !137

.critedge:                                        ; preds = %.critedge2, %38, %1
  %.033 = phi i32 [ 0, %1 ], [ 1, %38 ], [ 0, %.critedge2 ]
  ret i32 %.033
}